; Function Attrs: mustprogress nofree norecurse nosync nounwind optsize willreturn memory(argmem: readwrite, inaccessiblemem: write) uwtable
define internal void @_ZN8nanobind6detail9wrap_moveIZL28nanobind_init_test_issue_extRNS_7module_EE7ExampleEEvPvS5_(ptr noundef %0, ptr noundef %1) #20 personality ptr @__gxx_personality_v0 {
  %3 = getelementptr inbounds nuw i8, ptr %0, i64 16
  store ptr %3, ptr %0, align 8, !tbaa !100
  %4 = load ptr, ptr %1, align 8, !tbaa !101
  %5 = getelementptr inbounds nuw i8, ptr %1, i64 16
  %6 = icmp eq ptr %4, %5
  br i1 %6, label %7, label %_ZNKSt7__cxx1112basic_stringIcSt11char_traitsIcESaIcEE11_M_is_localEv.exit.i.i

7:                                                ; preds = %2
  %8 = getelementptr inbounds nuw i8, ptr %1, i64 8
  %9 = load i64, ptr %8, align 8, !tbaa !72
  %10 = icmp ult i64 %9, 16
  tail call void @llvm.assume(i1 %10)
  %11 = add nuw nsw i64 %9, 1
  tail call void @llvm.memcpy.p0.p0.i64(ptr noundef nonnull align 8 dereferenceable(1) %3, ptr noundef nonnull align 8 dereferenceable(1) %5, i64 %11, i1 false)
  br label %_ZZL28nanobind_init_test_issue_extRN8nanobind7module_EEN7ExampleC2EOS2_.exit

_ZNKSt7__cxx1112basic_stringIcSt11char_traitsIcESaIcEE11_M_is_localEv.exit.i.i: ; preds = %2
  store ptr %4, ptr %0, align 8, !tbaa !101
  %12 = load i64, ptr %5, align 8, !tbaa !38
  store i64 %12, ptr %3, align 8, !tbaa !38
  br label %_ZZL28nanobind_init_test_issue_extRN8nanobind7module_EEN7ExampleC2EOS2_.exit

_ZZL28nanobind_init_test_issue_extRN8nanobind7module_EEN7ExampleC2EOS2_.exit: ; preds = %7, %_ZNKSt7__cxx1112basic_stringIcSt11char_traitsIcESaIcEE11_M_is_localEv.exit.i.i
  %13 = getelementptr inbounds nuw i8, ptr %1, i64 8
  %14 = load i64, ptr %13, align 8, !tbaa !72
  %15 = getelementptr inbounds nuw i8, ptr %0, i64 8
  store i64 %14, ptr %15, align 8, !tbaa !72
  store ptr %5, ptr %1, align 8, !tbaa !101
  store i64 0, ptr %13, align 8, !tbaa !72
  store i8 0, ptr %5, align 1, !tbaa !38
  ret void
}